target datalayout = "e-m:e-p270:32:32-p271:32:32-p272:64:64-i64:64-i128:128-f80:128-n8:16:32:64-S128"
target triple = "x86_64-pc-linux-gnu"

@.str.14 = private unnamed_addr constant [29 x i8] c"../openssl/test/cmsapitest.c\00", align 1
@cert = internal global ptr null, align 8
@privkey = internal global ptr null, align 8
@.str.44 = private unnamed_addr constant [28 x i8] c"cms = CMS_ContentInfo_new()\00", align 1
@.str.45 = private unnamed_addr constant [45 x i8] c"CMS_add1_signer(cms, cert, privkey, NULL, 0)\00", align 1
@.str.46 = private unnamed_addr constant [25 x i8] c"CMS_add1_cert(cms, cert)\00", align 1

; Function Attrs: nounwind uwtable
define internal i32 @test_CMS_add1_cert() #0 {
  %1 = alloca ptr, align 8
  %2 = alloca i32, align 4
  call void @llvm.lifetime.start.p0(i64 8, ptr %1) #5
  store ptr null, ptr %1, align 8, !tbaa !13
  call void @llvm.lifetime.start.p0(i64 4, ptr %2) #5
  store i32 0, ptr %2, align 4, !tbaa !15
  %3 = call ptr @CMS_ContentInfo_new()
  store ptr %3, ptr %1, align 8, !tbaa !13
  %4 = call i32 @test_ptr(ptr noundef @.str.14, i32 noundef 96, ptr noundef @.str.44, ptr noundef %3)
  %5 = icmp ne i32 %4, 0
  br i1 %5, label %6, label %21

6:                                                ; preds = %0
  %7 = load ptr, ptr %1, align 8, !tbaa !13
  %8 = load ptr, ptr @cert, align 8, !tbaa !11
  %9 = load ptr, ptr @privkey, align 8, !tbaa !17
  %10 = call ptr @CMS_add1_signer(ptr noundef %7, ptr noundef %8, ptr noundef %9, ptr noundef null, i32 noundef 0)
  %11 = call i32 @test_ptr(ptr noundef @.str.14, i32 noundef 97, ptr noundef @.str.45, ptr noundef %10)
  %12 = icmp ne i32 %11, 0
  br i1 %12, label %13, label %21

13:                                               ; preds = %6
  %14 = load ptr, ptr %1, align 8, !tbaa !13
  %15 = load ptr, ptr @cert, align 8, !tbaa !11
  %16 = call i32 @CMS_add1_cert(ptr noundef %14, ptr noundef %15)
  %17 = icmp ne i32 %16, 0
  %18 = zext i1 %17 to i32
  %19 = call i32 @test_true(ptr noundef @.str.14, i32 noundef 98, ptr noundef @.str.46, i32 noundef %18)
  %20 = icmp ne i32 %19, 0
  br label %21

21:                                               ; preds = %13, %6, %0
  %22 = phi i1 [ false, %6 ], [ false, %0 ], [ %20, %13 ]
  %23 = zext i1 %22 to i32
  store i32 %23, ptr %2, align 4, !tbaa !15
  %24 = load ptr, ptr %1, align 8, !tbaa !13
  call void @CMS_ContentInfo_free(ptr noundef %24)
  %25 = load i32, ptr %2, align 4, !tbaa !15
  call void @llvm.lifetime.end.p0(i64 4, ptr %2) #5
  call void @llvm.lifetime.end.p0(i64 8, ptr %1) #5
  ret i32 %25
}