; Function Attrs: nounwind uwtable
define internal range(i32 0, 2) i32 @test_CMS_add1_cert() #1 {
  %1 = tail call ptr @CMS_ContentInfo_new() #5
  %2 = tail call i32 @test_ptr(ptr noundef nonnull @.str.14, i32 noundef 96, ptr noundef nonnull @.str.44, ptr noundef %1) #5
  %.not = icmp eq i32 %2, 0
  br i1 %.not, label %16, label %3

3:                                                ; preds = %0
  %4 = load ptr, ptr @cert, align 8, !tbaa !9
  %5 = load ptr, ptr @privkey, align 8, !tbaa !11
  %6 = tail call ptr @CMS_add1_signer(ptr noundef %1, ptr noundef %4, ptr noundef %5, ptr noundef null, i32 noundef 0) #5
  %7 = tail call i32 @test_ptr(ptr noundef nonnull @.str.14, i32 noundef 97, ptr noundef nonnull @.str.45, ptr noundef %6) #5
  %.not3 = icmp eq i32 %7, 0
  br i1 %.not3, label %16, label %8

8:                                                ; preds = %3
  %9 = load ptr, ptr @cert, align 8, !tbaa !9
  %10 = tail call i32 @CMS_add1_cert(ptr noundef %1, ptr noundef %9) #5
  %11 = icmp ne i32 %10, 0
  %12 = zext i1 %11 to i32
  %13 = tail call i32 @test_true(ptr noundef nonnull @.str.14, i32 noundef 98, ptr noundef nonnull @.str.46, i32 noundef %12) #5
  %14 = icmp ne i32 %13, 0
  %15 = zext i1 %14 to i32
  br label %16

16:                                               ; preds = %8, %3, %0
  %17 = phi i32 [ 0, %3 ], [ 0, %0 ], [ %15, %8 ]
  tail call void @CMS_ContentInfo_free(ptr noundef %1) #5
  ret i32 %17
}